; Function Attrs: nounwind uwtable
define hidden void @X11_Vulkan_DestroySurface(ptr noundef readonly captures(none) %0, ptr noundef %1, ptr noundef %2, ptr noundef %3) local_unnamed_addr #0 {
  %5 = getelementptr inbounds nuw i8, ptr %0, i64 1648
  %6 = load ptr, ptr %5, align 8
  %.not = icmp eq ptr %6, null
  br i1 %.not, label %10, label %7

7:                                                ; preds = %4
  %8 = getelementptr inbounds nuw i8, ptr %0, i64 1368
  %9 = load ptr, ptr %8, align 8
  tail call void @SDL_Vulkan_DestroySurface_Internal(ptr noundef %9, ptr noundef %1, ptr noundef %2, ptr noundef %3) #5
  br label %10

10:                                               ; preds = %7, %4
  ret void
}